; Function Attrs: mustprogress uwtable
define void @_ZN6casadi9to_stringB5cxx11ENS_6DynOutE(ptr dead_on_unwind noalias writable sret(%"class.std::__cxx11::basic_string") align 8 %0, i32 noundef %1) local_unnamed_addr #3 personality ptr @__gxx_personality_v0 {
  %3 = alloca %"class.std::allocator.0", align 1
  %4 = alloca %"class.std::allocator.0", align 1
  %5 = alloca %"class.std::allocator.0", align 1
  %6 = alloca %"class.std::allocator.0", align 1
  switch i32 %1, label %25 [
    i32 0, label %7
    i32 1, label %13
    i32 2, label %19
  ]

7:                                                ; preds = %2
  call void @_ZNSaIcEC1Ev(ptr noundef nonnull align 1 dereferenceable(1) %3) #29
  %8 = invoke noundef ptr @_ZNSt7__cxx1112basic_stringIcSt11char_traitsIcESaIcEE13_M_local_dataEv(ptr noundef nonnull align 8 dereferenceable(32) %0)
          to label %.noexc unwind label %11

.noexc:                                           ; preds = %7
  invoke void @_ZNSt7__cxx1112basic_stringIcSt11char_traitsIcESaIcEE12_Alloc_hiderC1EPcRKS3_(ptr noundef nonnull align 8 dereferenceable(8) %0, ptr noundef %8, ptr noundef nonnull align 1 dereferenceable(1) %3)
          to label %.noexc4 unwind label %11

.noexc4:                                          ; preds = %.noexc
  invoke void @_ZNSt7__cxx1112basic_stringIcSt11char_traitsIcESaIcEE12_M_constructIPKcEEvT_S8_St20forward_iterator_tag(ptr noundef nonnull align 8 dereferenceable(32) %0, ptr noundef nonnull @.str.9, ptr noundef nonnull getelementptr inbounds ([4 x i8], ptr @.str.9, i64 0, i64 3))
          to label %_ZNSt7__cxx1112basic_stringIcSt11char_traitsIcESaIcEEC2IS3_EEPKcRKS3_.exit unwind label %9

9:                                                ; preds = %.noexc4
  %10 = landingpad { ptr, i32 }
          cleanup
  call void @_ZNSaIcED2Ev(ptr noundef nonnull align 1 dereferenceable(1) %0) #29
  br label %.body

11:                                               ; preds = %.noexc, %7
  %12 = landingpad { ptr, i32 }
          cleanup
  br label %.body

13:                                               ; preds = %2
  call void @_ZNSaIcEC1Ev(ptr noundef nonnull align 1 dereferenceable(1) %4) #29
  %14 = invoke noundef ptr @_ZNSt7__cxx1112basic_stringIcSt11char_traitsIcESaIcEE13_M_local_dataEv(ptr noundef nonnull align 8 dereferenceable(32) %0)
          to label %.noexc5 unwind label %17

.noexc5:                                          ; preds = %13
  invoke void @_ZNSt7__cxx1112basic_stringIcSt11char_traitsIcESaIcEE12_Alloc_hiderC1EPcRKS3_(ptr noundef nonnull align 8 dereferenceable(8) %0, ptr noundef %14, ptr noundef nonnull align 1 dereferenceable(1) %4)
          to label %.noexc6 unwind label %17

.noexc6:                                          ; preds = %.noexc5
  invoke void @_ZNSt7__cxx1112basic_stringIcSt11char_traitsIcESaIcEE12_M_constructIPKcEEvT_S8_St20forward_iterator_tag(ptr noundef nonnull align 8 dereferenceable(32) %0, ptr noundef nonnull @.str.10, ptr noundef nonnull getelementptr inbounds ([4 x i8], ptr @.str.10, i64 0, i64 3))
          to label %_ZNSt7__cxx1112basic_stringIcSt11char_traitsIcESaIcEEC2IS3_EEPKcRKS3_.exit unwind label %15

15:                                               ; preds = %.noexc6
  %16 = landingpad { ptr, i32 }
          cleanup
  call void @_ZNSaIcED2Ev(ptr noundef nonnull align 1 dereferenceable(1) %0) #29
  br label %.body

17:                                               ; preds = %.noexc5, %13
  %18 = landingpad { ptr, i32 }
          cleanup
  br label %.body

19:                                               ; preds = %2
  call void @_ZNSaIcEC1Ev(ptr noundef nonnull align 1 dereferenceable(1) %5) #29
  %20 = invoke noundef ptr @_ZNSt7__cxx1112basic_stringIcSt11char_traitsIcESaIcEE13_M_local_dataEv(ptr noundef nonnull align 8 dereferenceable(32) %0)
          to label %.noexc10 unwind label %23

.noexc10:                                         ; preds = %19
  invoke void @_ZNSt7__cxx1112basic_stringIcSt11char_traitsIcESaIcEE12_Alloc_hiderC1EPcRKS3_(ptr noundef nonnull align 8 dereferenceable(8) %0, ptr noundef %20, ptr noundef nonnull align 1 dereferenceable(1) %5)
          to label %.noexc11 unwind label %23

.noexc11:                                         ; preds = %.noexc10
  invoke void @_ZNSt7__cxx1112basic_stringIcSt11char_traitsIcESaIcEE12_M_constructIPKcEEvT_S8_St20forward_iterator_tag(ptr noundef nonnull align 8 dereferenceable(32) %0, ptr noundef nonnull @.str.11, ptr noundef nonnull getelementptr inbounds ([5 x i8], ptr @.str.11, i64 0, i64 4))
          to label %_ZNSt7__cxx1112basic_stringIcSt11char_traitsIcESaIcEEC2IS3_EEPKcRKS3_.exit unwind label %21

21:                                               ; preds = %.noexc11
  %22 = landingpad { ptr, i32 }
          cleanup
  call void @_ZNSaIcED2Ev(ptr noundef nonnull align 1 dereferenceable(1) %0) #29
  br label %.body

23:                                               ; preds = %.noexc10, %19
  %24 = landingpad { ptr, i32 }
          cleanup
  br label %.body

25:                                               ; preds = %2
  call void @_ZNSaIcEC1Ev(ptr noundef nonnull align 1 dereferenceable(1) %6) #29
  %26 = invoke noundef ptr @_ZNSt7__cxx1112basic_stringIcSt11char_traitsIcESaIcEE13_M_local_dataEv(ptr noundef nonnull align 8 dereferenceable(32) %0)
          to label %.noexc15 unwind label %29

.noexc15:                                         ; preds = %25
  invoke void @_ZNSt7__cxx1112basic_stringIcSt11char_traitsIcESaIcEE12_Alloc_hiderC1EPcRKS3_(ptr noundef nonnull align 8 dereferenceable(8) %0, ptr noundef %26, ptr noundef nonnull align 1 dereferenceable(1) %6)
          to label %.noexc16 unwind label %29

.noexc16:                                         ; preds = %.noexc15
  invoke void @_ZNSt7__cxx1112basic_stringIcSt11char_traitsIcESaIcEE12_M_constructIPKcEEvT_S8_St20forward_iterator_tag(ptr noundef nonnull align 8 dereferenceable(32) %0, ptr noundef nonnull @.str.8, ptr noundef nonnull @.str.8)
          to label %_ZNSt7__cxx1112basic_stringIcSt11char_traitsIcESaIcEEC2IS3_EEPKcRKS3_.exit unwind label %27

27:                                               ; preds = %.noexc16
  %28 = landingpad { ptr, i32 }
          cleanup
  call void @_ZNSaIcED2Ev(ptr noundef nonnull align 1 dereferenceable(1) %0) #29
  br label %.body

29:                                               ; preds = %.noexc15, %25
  %30 = landingpad { ptr, i32 }
          cleanup
  br label %.body

_ZNSt7__cxx1112basic_stringIcSt11char_traitsIcESaIcEEC2IS3_EEPKcRKS3_.exit: ; preds = %.noexc16, %.noexc11, %.noexc6, %.noexc4
  %.sink = phi ptr [ %3, %.noexc4 ], [ %4, %.noexc6 ], [ %5, %.noexc11 ], [ %6, %.noexc16 ]
  call void @_ZNSaIcED1Ev(ptr noundef nonnull align 1 dereferenceable(1) %.sink) #29
  ret void

.body:                                            ; preds = %29, %27, %23, %21, %17, %15, %11, %9
  %.sink20 = phi ptr [ %3, %9 ], [ %3, %11 ], [ %4, %15 ], [ %4, %17 ], [ %5, %21 ], [ %5, %23 ], [ %6, %27 ], [ %6, %29 ]
  %.pn = phi { ptr, i32 } [ %10, %9 ], [ %12, %11 ], [ %16, %15 ], [ %18, %17 ], [ %22, %21 ], [ %24, %23 ], [ %28, %27 ], [ %30, %29 ]
  call void @_ZNSaIcED1Ev(ptr noundef nonnull align 1 dereferenceable(1) %.sink20) #29
  resume { ptr, i32 } %.pn
}